
main.elf:     file format elf32-msp430


Disassembly of section .text:

0000f800 <__init_stack>:
    f800:	31 40 80 02 	mov	#640,	r1	;#0x0280

0000f804 <__low_level_init>:
    f804:	15 42 20 01 	mov	&0x0120,r5	
    f808:	75 f3       	and.b	#-1,	r5	;r3 As==11
    f80a:	35 d0 08 5a 	bis	#23048,	r5	;#0x5a08

0000f80e <__do_copy_data>:
    f80e:	3f 40 00 00 	mov	#0,	r15	;#0x0000
    f812:	0f 93       	tst	r15		
    f814:	07 24       	jz	$+16     	;abs 0xf824
    f816:	82 45 20 01 	mov	r5,	&0x0120	
    f81a:	2f 83       	decd	r15		
    f81c:	9f 4f 32 fa 	mov	-1486(r15),512(r15);0xfa32(r15), 0x0200(r15)
    f820:	00 02 
    f822:	f9 23       	jnz	$-12     	;abs 0xf816

0000f824 <__do_clear_bss>:
    f824:	3f 40 08 00 	mov	#8,	r15	;#0x0008
    f828:	0f 93       	tst	r15		
    f82a:	06 24       	jz	$+14     	;abs 0xf838
    f82c:	82 45 20 01 	mov	r5,	&0x0120	
    f830:	1f 83       	dec	r15		
    f832:	cf 43 00 02 	mov.b	#0,	512(r15);r3 As==00, 0x0200(r15)
    f836:	fa 23       	jnz	$-10     	;abs 0xf82c

0000f838 <main>:
void candle_init() {
    CANDLE_DIR |= CANDLE;
    CANDLE_OUT &= ~CANDLE;
}

int main(void) {
    f838:	21 83       	decd	r1		
    WDTCTL = WDTPW + WDTHOLD; 	// Stop WDT
    f83a:	b2 40 80 5a 	mov	#23168,	&0x0120	;#0x5a80
    f83e:	20 01 
    BCSCTL1 = CALBC1_1MHZ;      // Set range
    f840:	d2 42 ff 10 	mov.b	&0x10ff,&0x0057	
    f844:	57 00 
    DCOCTL = CALDCO_1MHZ;       // SMCLK = DCO = 1MHz
    f846:	d2 42 fe 10 	mov.b	&0x10fe,&0x0056	
    f84a:	56 00 

    candle_init();
    f84c:	b0 12 1c fa 	call	#0xfa1c	
    uart_init();
    f850:	b0 12 a2 f8 	call	#0xf8a2	

    __enable_interrupt();
    f854:	32 d2       	eint			

    uint8_t c;

    while(1) {
        if(uart_getc(&c)) {
    f856:	0f 41       	mov	r1,	r15	
    f858:	b0 12 ba f8 	call	#0xf8ba	
    f85c:	4f 93       	tst.b	r15		
    f85e:	fb 27       	jz	$-8      	;abs 0xf856
            if(c == '1') {
    f860:	6f 41       	mov.b	@r1,	r15	
    f862:	7f 90 31 00 	cmp.b	#49,	r15	;#0x0031
    f866:	05 20       	jnz	$+12     	;abs 0xf872
                CANDLE_OUT |= CANDLE;
    f868:	d2 d3 21 00 	bis.b	#1,	&0x0021	;r3 As==01
                uart_puts("on");
    f86c:	3f 40 28 fa 	mov	#-1496,	r15	;#0xfa28
    f870:	08 3c       	jmp	$+18     	;abs 0xf882
                uart_putc('\n');
                uart_putc('\r');
            } else if (c == '0') {
    f872:	7f 90 30 00 	cmp.b	#48,	r15	;#0x0030
    f876:	ef 23       	jnz	$-32     	;abs 0xf856
                CANDLE_OUT &= ~CANDLE;
    f878:	f2 f0 fe ff 	and.b	#-2,	&0x0021	;#0xfffe
    f87c:	21 00 
                uart_puts("off");
    f87e:	3f 40 2b fa 	mov	#-1493,	r15	;#0xfa2b
    f882:	b0 12 1a f9 	call	#0xf91a	
                uart_putc('\n');
    f886:	7f 40 0a 00 	mov.b	#10,	r15	;#0x000a
    f88a:	b0 12 d6 f8 	call	#0xf8d6	
                uart_putc('\r');
    f88e:	7f 40 0d 00 	mov.b	#13,	r15	;#0x000d
    f892:	b0 12 d6 f8 	call	#0xf8d6	
    f896:	df 3f       	jmp	$-64     	;abs 0xf856

0000f898 <__stop_progExec__>:
    f898:	32 d0 f0 00 	bis	#240,	r2	;#0x00f0
    f89c:	fd 3f       	jmp	$-4      	;abs 0xf898

0000f89e <__ctors_end>:
    f89e:	30 40 30 fa 	br	#0xfa30	

0000f8a2 <uart_init>:
static volatile bool is_receiving = false;

static volatile bool has_received = false;

void uart_init(void) {
    P1SEL |= TXD;
    f8a2:	e2 d3 26 00 	bis.b	#2,	&0x0026	;r3 As==10
    P1DIR |= TXD;
    f8a6:	e2 d3 22 00 	bis.b	#2,	&0x0022	;r3 As==10

    P1IES |= RXD;      // RXD Hi/lo edge interrupt
    f8aa:	e2 d2 24 00 	bis.b	#4,	&0x0024	;r2 As==10
    P1IFG &= ~RXD;     // Clear RXD (flag) before enabling interrupt
    f8ae:	f2 f0 fb ff 	and.b	#-5,	&0x0023	;#0xfffb
    f8b2:	23 00 
    P1IE  |= RXD;      // Enable RXD interrupt
    f8b4:	e2 d2 25 00 	bis.b	#4,	&0x0025	;r2 As==10
}
    f8b8:	30 41       	ret			

0000f8ba <uart_getc>:

bool uart_getc(uint8_t *c) {
    if (!has_received) {
    f8ba:	5e 42 06 02 	mov.b	&0x0206,r14	
    f8be:	4e 93       	tst.b	r14		
    f8c0:	08 24       	jz	$+18     	;abs 0xf8d2
        return false;
    }

    *c = rx_byte;
    f8c2:	1e 42 04 02 	mov	&0x0204,r14	
    f8c6:	cf 4e 00 00 	mov.b	r14,	0(r15)	;0x0000(r15)
    has_received = false;
    f8ca:	c2 43 06 02 	mov.b	#0,	&0x0206	;r3 As==00

    return true;
    f8ce:	5f 43       	mov.b	#1,	r15	;r3 As==01
    f8d0:	30 41       	ret			
    P1IE  |= RXD;      // Enable RXD interrupt
}

bool uart_getc(uint8_t *c) {
    if (!has_received) {
        return false;
    f8d2:	4f 4e       	mov.b	r14,	r15	

    *c = rx_byte;
    has_received = false;

    return true;
}
    f8d4:	30 41       	ret			

0000f8d6 <uart_putc>:

void uart_putc(uint8_t c) {
    tx_byte = c;
    f8d6:	4f 4f       	mov.b	r15,	r15	
    f8d8:	82 4f 02 02 	mov	r15,	&0x0202	

    while(is_receiving); 					// Wait for RX completion
    f8dc:	c2 93 00 02 	tst.b	&0x0200	
    f8e0:	fd 23       	jnz	$-4      	;abs 0xf8dc

    CCTL0 = OUT; 							// TXD Idle as Mark
    f8e2:	a2 42 62 01 	mov	#4,	&0x0162	;r2 As==10
    TACTL = TASSEL_2 + MC_2; 				// SMCLK, continuous mode
    f8e6:	b2 40 20 02 	mov	#544,	&0x0160	;#0x0220
    f8ea:	60 01 

    bit_count = 0xA; 						// Load Bit counter, 8 bits + ST/SP
    f8ec:	f2 40 0a 00 	mov.b	#10,	&0x0201	;#0x000a
    f8f0:	01 02 
    CCR0 = TAR; 							// Initialize compare register
    f8f2:	92 42 70 01 	mov	&0x0170,&0x0172	
    f8f6:	72 01 

    CCR0 += BIT_TIME; 						// Set time till first bit
    f8f8:	b2 50 68 00 	add	#104,	&0x0172	;#0x0068
    f8fc:	72 01 
    tx_byte |= 0x100; 						// Add stop bit to tx_byte (which is logical 1)
    f8fe:	b2 d0 00 01 	bis	#256,	&0x0202	;#0x0100
    f902:	02 02 
    tx_byte = tx_byte << 1; 				// Add start bit (which is logical 0)
    f904:	92 52 02 02 	rla	&0x0202	
    f908:	02 02 

    CCTL0 = CCIS_0 + OUTMOD_0 + CCIE + OUT;// Set signal, intial val, enable interrupts
    f90a:	b2 40 14 00 	mov	#20,	&0x0162	;#0x0014
    f90e:	62 01 

    while ( CCTL0 & CCIE ); 				// Wait for previous TX completion
    f910:	b2 b0 10 00 	bit	#16,	&0x0162	;#0x0010
    f914:	62 01 
    f916:	fc 23       	jnz	$-6      	;abs 0xf910
}
    f918:	30 41       	ret			

0000f91a <uart_puts>:

void uart_puts(const char *str)
{
    f91a:	0b 12       	push	r11		
    f91c:	0b 4f       	mov	r15,	r11	
    if(*str != 0) uart_putc(*str++);
    f91e:	6f 4f       	mov.b	@r15,	r15	
    f920:	4f 93       	tst.b	r15		
    f922:	03 24       	jz	$+8      	;abs 0xf92a
    while(*str != 0) uart_putc(*str++);
    f924:	1b 53       	inc	r11		
    f926:	b0 12 d6 f8 	call	#0xf8d6	
    f92a:	6f 4b       	mov.b	@r11,	r15	
    f92c:	4f 93       	tst.b	r15		
    f92e:	fa 23       	jnz	$-10     	;abs 0xf924
}
    f930:	3b 41       	pop	r11		
    f932:	30 41       	ret			

0000f934 <port1_isr>:

/* ISR for RXD */
void port1_isr(void) __attribute__((interrupt (PORT1_VECTOR)));
void port1_isr(void) {
    is_receiving = true;
    f934:	d2 43 00 02 	mov.b	#1,	&0x0200	;r3 As==01

    P1IE &= ~RXD; 					// Disable RXD interrupt
    f938:	f2 f0 fb ff 	and.b	#-5,	&0x0025	;#0xfffb
    f93c:	25 00 
    P1IFG &= ~RXD; 					// Clear RXD IFG (interrupt flag)
    f93e:	f2 f0 fb ff 	and.b	#-5,	&0x0023	;#0xfffb
    f942:	23 00 

    TACTL = TASSEL_2 + MC_2; 		// SMCLK, continuous mode
    f944:	b2 40 20 02 	mov	#544,	&0x0160	;#0x0220
    f948:	60 01 
    CCR0 = TAR; 					// Initialize compare register
    f94a:	92 42 70 01 	mov	&0x0170,&0x0172	
    f94e:	72 01 
    CCR0 += HALF_BIT_TIME; 			// Set time till first bit
    f950:	b2 50 34 00 	add	#52,	&0x0172	;#0x0034
    f954:	72 01 
    CCTL0 = OUTMOD_1 + CCIE; 		// Disable TX and enable interrupts
    f956:	b2 40 30 00 	mov	#48,	&0x0162	;#0x0030
    f95a:	62 01 

    rx_byte = 0; 					// Initialize rx_byte
    f95c:	82 43 04 02 	mov	#0,	&0x0204	;r3 As==00
    bit_count = 9; 					// Load Bit counter, 8 bits + start bit
    f960:	f2 40 09 00 	mov.b	#9,	&0x0201	;#0x0009
    f964:	01 02 
}
    f966:	00 13       	reti			

0000f968 <timera0_isr>:

/* ISR for TXD and RXD */
void timera0_isr(void) __attribute__((interrupt (TIMERA0_VECTOR)));
void timera0_isr(void) {
    f968:	0f 12       	push	r15		
    if(!is_receiving) {
    f96a:	5f 42 00 02 	mov.b	&0x0200,r15	
    f96e:	4f 93       	tst.b	r15		
    f970:	23 20       	jnz	$+72     	;abs 0xf9b8
        CCR0 += BIT_TIME; 						// Add Offset to CCR0
    f972:	b2 50 68 00 	add	#104,	&0x0172	;#0x0068
    f976:	72 01 
        if ( bit_count == 0) { 					// If all bits TXed
    f978:	c2 9f 01 02 	cmp.b	r15,	&0x0201	
    f97c:	07 20       	jnz	$+16     	;abs 0xf98c
            TACTL = TASSEL_2; 					// SMCLK, timer off (for power consumption)
    f97e:	b2 40 00 02 	mov	#512,	&0x0160	;#0x0200
    f982:	60 01 
            CCTL0 &= ~ CCIE ; 					// Disable interrupt
    f984:	b2 f0 ef ff 	and	#-17,	&0x0162	;#0xffef
    f988:	62 01 
    f98a:	46 3c       	jmp	$+142    	;abs 0xfa18
        } else {
            if (tx_byte & 0x01) {
    f98c:	92 b3 02 02 	bit	#1,	&0x0202	;r3 As==01
    f990:	07 24       	jz	$+16     	;abs 0xf9a0
                CCTL0 = ((CCTL0 & ~OUTMOD_7 ) | OUTMOD_1);  //OUTMOD_7 defines the 'window' of the field.
    f992:	1f 42 62 01 	mov	&0x0162,r15	
    f996:	3f f0 1f ff 	and	#-225,	r15	;#0xff1f
    f99a:	3f d0 20 00 	bis	#32,	r15	;#0x0020
    f99e:	06 3c       	jmp	$+14     	;abs 0xf9ac
            } else {
                CCTL0 = ((CCTL0 & ~OUTMOD_7 ) | OUTMOD_5);  //OUTMOD_7 defines the 'window' of the field.
    f9a0:	1f 42 62 01 	mov	&0x0162,r15	
    f9a4:	3f f0 1f ff 	and	#-225,	r15	;#0xff1f
    f9a8:	3f d0 a0 00 	bis	#160,	r15	;#0x00a0
    f9ac:	82 4f 62 01 	mov	r15,	&0x0162	
            }

            tx_byte = tx_byte >> 1;
    f9b0:	12 c3       	clrc			
    f9b2:	12 10 02 02 	rrc	&0x0202	
    f9b6:	2e 3c       	jmp	$+94     	;abs 0xfa14
            bit_count --;
        }
    } else {
        CCR0 += BIT_TIME; 						// Add Offset to CCR0
    f9b8:	b2 50 68 00 	add	#104,	&0x0172	;#0x0068
    f9bc:	72 01 

        if ( bit_count == 0) {
    f9be:	5f 42 01 02 	mov.b	&0x0201,r15	
    f9c2:	4f 93       	tst.b	r15		
    f9c4:	1d 20       	jnz	$+60     	;abs 0xfa00

            TACTL = TASSEL_2; 					// SMCLK, timer off (for power consumption)
    f9c6:	b2 40 00 02 	mov	#512,	&0x0160	;#0x0200
    f9ca:	60 01 
            CCTL0 &= ~ CCIE ; 					// Disable interrupt
    f9cc:	b2 f0 ef ff 	and	#-17,	&0x0162	;#0xffef
    f9d0:	62 01 

            is_receiving = false;
    f9d2:	c2 4f 00 02 	mov.b	r15,	&0x0200	

            P1IFG &= ~RXD; 						// clear RXD IFG (interrupt flag)
    f9d6:	f2 f0 fb ff 	and.b	#-5,	&0x0023	;#0xfffb
    f9da:	23 00 
            P1IE |= RXD; 						// enabled RXD interrupt
    f9dc:	e2 d2 25 00 	bis.b	#4,	&0x0025	;r2 As==10

            if ( (rx_byte & 0x201) == 0x200) { 	// Validate the start and stop bits are correct
    f9e0:	1f 42 04 02 	mov	&0x0204,r15	
    f9e4:	3f f0 01 02 	and	#513,	r15	;#0x0201
    f9e8:	3f 90 00 02 	cmp	#512,	r15	;#0x0200
    f9ec:	15 20       	jnz	$+44     	;abs 0xfa18
                rx_byte = rx_byte >> 1; 			// Remove start bit
    f9ee:	12 c3       	clrc			
    f9f0:	12 10 04 02 	rrc	&0x0204	
                rx_byte &= 0xFF; 				// Remove stop bit
    f9f4:	b2 f0 ff 00 	and	#255,	&0x0204	;#0x00ff
    f9f8:	04 02 
                has_received = true;
    f9fa:	d2 43 06 02 	mov.b	#1,	&0x0206	;r3 As==01
    f9fe:	0c 3c       	jmp	$+26     	;abs 0xfa18
            }
        } else {
            if ( (P1IN & RXD) == RXD) { 		// If bit is set?
    fa00:	5f 42 20 00 	mov.b	&0x0020,r15	
    fa04:	2f f2       	and	#4,	r15	;r2 As==10
    fa06:	03 24       	jz	$+8      	;abs 0xfa0e
                rx_byte |= 0x400; 				// Set the value in the rx_byte
    fa08:	b2 d0 00 04 	bis	#1024,	&0x0204	;#0x0400
    fa0c:	04 02 
            }
            rx_byte = rx_byte >> 1; 				// Shift the bits down
    fa0e:	12 c3       	clrc			
    fa10:	12 10 04 02 	rrc	&0x0204	
            bit_count --;
    fa14:	f2 53 01 02 	add.b	#-1,	&0x0201	;r3 As==11
        }
    }
}
    fa18:	3f 41       	pop	r15		
    fa1a:	00 13       	reti			

0000fa1c <candle_init>:


void candle_init() {
    CANDLE_DIR |= CANDLE;
    fa1c:	d2 d3 22 00 	bis.b	#1,	&0x0022	;r3 As==01
    CANDLE_OUT &= ~CANDLE;
    fa20:	f2 f0 fe ff 	and.b	#-2,	&0x0021	;#0xfffe
    fa24:	21 00 
}
    fa26:	30 41       	ret			
    fa28:	6f 6e       	addc.b	@r14,	r15	
    fa2a:	00 6f       	addc	r15,	r0	
    fa2c:	66 66       	addc.b	@r6,	r6	
	...

0000fa30 <_unexpected_>:
    fa30:	00 13       	reti			

Disassembly of section .bss:

00000200 <__bss_start>:
	...

00000201 <bit_count>:
	...

00000202 <tx_byte>:
	...

00000204 <rx_byte>:
	...

00000206 <has_received>:
	...

Disassembly of section .vectors:

0000ffe0 <__ivtbl_16>:
    ffe0:	9e f8 9e f8 	and	-1890(r8),-1740(r14);0xf89e(r8), 0xf934(r14)
    ffe4:	34 f9 
    ffe6:	9e f8 9e f8 	and	-1890(r8),-1890(r14);0xf89e(r8), 0xf89e(r14)
    ffea:	9e f8 
    ffec:	9e f8 9e f8 	and	-1890(r8),-1890(r14);0xf89e(r8), 0xf89e(r14)
    fff0:	9e f8 
    fff2:	68 f9       	and.b	@r9,	r8	
    fff4:	9e f8 9e f8 	and	-1890(r8),-1890(r14);0xf89e(r8), 0xf89e(r14)
    fff8:	9e f8 
    fffa:	9e f8 9e f8 	and	-1890(r8),-2048(r14);0xf89e(r8), 0xf800(r14)
    fffe:	00 f8 

Disassembly of section .debug_aranges:

00000000 <.debug_aranges>:
   0:	14 00       	.word	0x0014;	????	
   2:	00 00       	.word	0x0000;	????	
   4:	02 00       	.word	0x0002;	????	
   6:	00 00       	.word	0x0000;	????	
   8:	00 00       	.word	0x0000;	????	
   a:	02 00       	.word	0x0002;	????	
   c:	a2 f8 8d 01 	and	@r8,	&0x018d	
  10:	38 f8       	and	@r8+,	r8	
  12:	60 00       	.word	0x0060;	????	
  14:	00 00       	.word	0x0000;	????	
	...

Disassembly of section .debug_pubnames:

00000000 <.debug_pubnames>:
   0:	7d 00       	.word	0x007d;	????	
   2:	00 00       	.word	0x0000;	????	
   4:	02 00       	.word	0x0002;	????	
   6:	00 00       	.word	0x0000;	????	
   8:	00 00       	.word	0x0000;	????	
   a:	fd 03       	.word	0x03fd;	????	
   c:	00 00       	.word	0x0000;	????	
   e:	68 00       	.word	0x0068;	????	
  10:	00 00       	.word	0x0000;	????	
  12:	75 61       	addc.b	@r1+,	r5	
  14:	72 74       	subc.b	@r4+,	r2	
  16:	5f 69 6e 69 	addc.b	26990(r9),r15	;0x696e(r9)
  1a:	74 00       	.word	0x0074;	????	
  1c:	78 00       	.word	0x0078;	????	
  1e:	00 00       	.word	0x0000;	????	
  20:	75 61       	addc.b	@r1+,	r5	
  22:	72 74       	subc.b	@r4+,	r2	
  24:	5f 67 65 74 	addc.b	29797(r7),r15	;0x7465(r7)
  28:	63 00       	.word	0x0063;	????	
  2a:	ab 00       	.word	0x00ab;	????	
  2c:	00 00       	.word	0x0000;	????	
  2e:	75 61       	addc.b	@r1+,	r5	
  30:	72 74       	subc.b	@r4+,	r2	
  32:	5f 70 75 74 	subc.b	0x7475,	r15	;PC rel. 0x074ab
  36:	63 00       	.word	0x0063;	????	
  38:	cb 00       	.word	0x00cb;	????	
  3a:	00 00       	.word	0x0000;	????	
  3c:	75 61       	addc.b	@r1+,	r5	
  3e:	72 74       	subc.b	@r4+,	r2	
  40:	5f 70 75 74 	subc.b	0x7475,	r15	;PC rel. 0x074b9
  44:	73 00       	.word	0x0073;	????	
  46:	02 01       	.word	0x0102;	????	
  48:	00 00       	.word	0x0000;	????	
  4a:	70 6f       	addc.b	@r15+,	r0	
  4c:	72 74       	subc.b	@r4+,	r2	
  4e:	31 5f       	add	@r15+,	r1	
  50:	69 73       	subc.b	#2,	r9	;r3 As==10
  52:	72 00       	.word	0x0072;	????	
  54:	12 01       	.word	0x0112;	????	
  56:	00 00       	.word	0x0000;	????	
  58:	74 69       	addc.b	@r9+,	r4	
  5a:	6d 65       	addc.b	@r5,	r13	
  5c:	72 61       	addc.b	@r1+,	r2	
  5e:	30 5f       	add	@r15+,	r0	
  60:	69 73       	subc.b	#2,	r9	;r3 As==10
  62:	72 00       	.word	0x0072;	????	
  64:	23 01       	.word	0x0123;	????	
  66:	00 00       	.word	0x0000;	????	
  68:	63 61       	.word	0x6163;	????	Illegal as 2-op instr
  6a:	6e 64       	addc.b	@r4,	r14	
  6c:	6c 65       	addc.b	@r5,	r12	
  6e:	5f 69 6e 69 	addc.b	26990(r9),r15	;0x696e(r9)
  72:	74 00       	.word	0x0074;	????	
  74:	32 01       	.word	0x0132;	????	
  76:	00 00       	.word	0x0000;	????	
  78:	6d 61       	addc.b	@r1,	r13	
  7a:	69 6e       	addc.b	@r14,	r9	
  7c:	00 00       	.word	0x0000;	????	
  7e:	00 00       	.word	0x0000;	????	
	...

Disassembly of section .debug_info:

00000000 <.debug_info>:
   0:	f9 03       	.word	0x03f9;	????	
   2:	00 00       	.word	0x0000;	????	
   4:	02 00       	.word	0x0002;	????	
   6:	00 00       	.word	0x0000;	????	
   8:	00 00       	.word	0x0000;	????	
   a:	02 01       	.word	0x0102;	????	
   c:	4d 01       	.word	0x014d;	????	
   e:	00 00       	.word	0x0000;	????	
  10:	01 22       	jnz	$-1020   	;abs 0xfc14
  12:	01 00       	.word	0x0001;	????	
  14:	00 9f       	cmp	r15,	r0	
	...
  22:	00 00       	.word	0x0000;	????	
  24:	00 02       	.word	0x0200;	????	
  26:	01 06       	.word	0x0601;	????	
  28:	c7 00       	.word	0x00c7;	????	
  2a:	00 00       	.word	0x0000;	????	
  2c:	03 02       	.word	0x0203;	????	
  2e:	05 69       	addc	r9,	r5	
  30:	6e 74       	subc.b	@r4,	r14	
  32:	00 02       	.word	0x0200;	????	
  34:	04 05       	.word	0x0504;	????	
  36:	6b 00       	.word	0x006b;	????	
  38:	00 00       	.word	0x0000;	????	
  3a:	02 08       	.word	0x0802;	????	
  3c:	05 66       	addc	r6,	r5	
  3e:	00 00       	.word	0x0000;	????	
  40:	00 04       	.word	0x0400;	????	
  42:	24 00       	.word	0x0024;	????	
  44:	00 00       	.word	0x0000;	????	
  46:	03 2b       	jnc	$-504    	;abs 0xfe4e
  48:	4c 00       	.word	0x004c;	????	
  4a:	00 00       	.word	0x0000;	????	
  4c:	02 01       	.word	0x0102;	????	
  4e:	08 c5       	bic	r5,	r8	
  50:	00 00       	.word	0x0000;	????	
  52:	00 02       	.word	0x0200;	????	
  54:	02 07       	.word	0x0702;	????	
  56:	dd 00       	.word	0x00dd;	????	
  58:	00 00       	.word	0x0000;	????	
  5a:	02 04       	.word	0x0402;	????	
  5c:	07 d8       	bis	r8,	r7	
  5e:	00 00       	.word	0x0000;	????	
  60:	00 02       	.word	0x0200;	????	
  62:	08 07       	.word	0x0708;	????	
  64:	d3 00       	.word	0x00d3;	????	
  66:	00 00       	.word	0x0000;	????	
  68:	05 01       	.word	0x0105;	????	
  6a:	00 00       	.word	0x0000;	????	
  6c:	00 00       	.word	0x0000;	????	
  6e:	01 2e       	jc	$-1020   	;abs 0xfc72
  70:	01 a2       	dadd	r2,	r1	
  72:	f8 ba f8 02 	bit.b	@r10+,	760(r8)	;0x02f8(r8)
  76:	71 02       	.word	0x0271;	????	
  78:	06 01       	.word	0x0106;	????	
  7a:	7d 00       	.word	0x007d;	????	
  7c:	00 00       	.word	0x0000;	????	
  7e:	01 37       	jge	$-508    	;abs 0xfe82
  80:	01 9e       	cmp	r14,	r1	
  82:	00 00       	.word	0x0000;	????	
  84:	00 ba       	bit	r10,	r0	
  86:	f8 d6 f8 02 	bis.b	@r6+,	760(r8)	;0x02f8(r8)
  8a:	71 02       	.word	0x0271;	????	
  8c:	9e 00       	.word	0x009e;	????	
  8e:	00 00       	.word	0x0000;	????	
  90:	07 63       	adc	r7		
  92:	00 01       	.word	0x0100;	????	
  94:	37 a5       	dadd	@r5+,	r7	
	...
  9e:	02 01       	.word	0x0102;	????	
  a0:	02 0a       	.word	0x0a02;	????	
  a2:	01 00       	.word	0x0001;	????	
  a4:	00 08       	.word	0x0800;	????	
  a6:	02 41       	mov	r1,	r2	
  a8:	00 00       	.word	0x0000;	????	
  aa:	00 09       	.word	0x0900;	????	
  ac:	01 6b       	addc	r11,	r1	
  ae:	01 00       	.word	0x0001;	????	
  b0:	00 01       	.word	0x0100;	????	
  b2:	42 01       	.word	0x0142;	????	
  b4:	d6 f8 1a f9 	and.b	-1766(r8),28930(r6);0xf91a(r8), 0x7102(r6)
  b8:	02 71 
  ba:	02 cb       	bic	r11,	r2	
  bc:	00 00       	.word	0x0000;	????	
  be:	00 0a       	.word	0x0a00;	????	
  c0:	63 00       	.word	0x0063;	????	
  c2:	01 42       	mov	r2,	r1	
  c4:	41 00       	.word	0x0041;	????	
  c6:	00 00       	.word	0x0000;	????	
  c8:	01 5f       	add	r15,	r1	
  ca:	00 0b       	.word	0x0b00;	????	
  cc:	01 81       	sub	r1,	r1	
  ce:	01 00       	.word	0x0001;	????	
  d0:	00 01       	.word	0x0100;	????	
  d2:	56 01       	.word	0x0156;	????	
  d4:	1a f9 34 f9 	and	-1740(r9),r10	;0xf934(r9)
  d8:	12 00       	.word	0x0012;	????	
  da:	00 00       	.word	0x0000;	????	
  dc:	f0 00       	.word	0x00f0;	????	
  de:	00 00       	.word	0x0000;	????	
  e0:	07 73       	sbc	r7		
  e2:	74 72       	subc.b	#8,	r4	;r2 As==11
  e4:	00 01       	.word	0x0100;	????	
  e6:	56 f0 00 00 	and.b	0x0000,	r6	;PC rel. 0x000ea
  ea:	00 26       	jz	$-1022   	;abs 0xfcec
  ec:	00 00       	.word	0x0000;	????	
  ee:	00 00       	.word	0x0000;	????	
  f0:	08 02       	.word	0x0208;	????	
  f2:	f6 00       	.word	0x00f6;	????	
  f4:	00 00       	.word	0x0000;	????	
  f6:	0c fb       	and	r11,	r12	
  f8:	00 00       	.word	0x0000;	????	
  fa:	00 02       	.word	0x0200;	????	
  fc:	01 06       	.word	0x0601;	????	
  fe:	ce 00       	.word	0x00ce;	????	
 100:	00 00       	.word	0x0000;	????	
 102:	05 01       	.word	0x0105;	????	
 104:	f3 00       	.word	0x00f3;	????	
 106:	00 00       	.word	0x0000;	????	
 108:	01 5e       	add	r14,	r1	
 10a:	01 34       	jge	$+4      	;abs 0x10e
 10c:	f9 68 f9 02 	addc.b	@r8+,	761(r9)	;0x02f9(r9)
 110:	71 02       	.word	0x0271;	????	
 112:	0d 01       	.word	0x010d;	????	
 114:	75 01       	.word	0x0175;	????	
 116:	00 00       	.word	0x0000;	????	
 118:	01 6f       	addc	r15,	r1	
 11a:	01 68       	addc	r8,	r1	
 11c:	f9 1c       	.word	0x1cf9;	????	
 11e:	fa 3f       	jmp	$-10     	;abs 0x114
 120:	00 00       	.word	0x0000;	????	
 122:	00 0e       	.word	0x0e00;	????	
 124:	01 0a       	.word	0x0a01;	????	
 126:	00 00       	.word	0x0000;	????	
 128:	00 01       	.word	0x0100;	????	
 12a:	9c 1c       	.word	0x1c9c;	????	
 12c:	fa 28       	jnc	$+502    	;abs 0x322
 12e:	fa 02       	.word	0x02fa;	????	
 130:	71 02       	.word	0x0271;	????	
 132:	0f 01       	.word	0x010f;	????	
 134:	1f 00       	.word	0x001f;	????	
 136:	00 00       	.word	0x0000;	????	
 138:	01 a1       	dadd	r1,	r1	
 13a:	01 2c       	jc	$+4      	;abs 0x13e
 13c:	00 00       	.word	0x0000;	????	
 13e:	00 38       	jl	$+2      	;abs 0x140
 140:	f8 98 f8 53 	cmp.b	@r8+,	21496(r8);0x53f8(r8)
 144:	00 00       	.word	0x0000;	????	
 146:	00 58       	add	r8,	r0	
 148:	01 00       	.word	0x0001;	????	
 14a:	00 10       	rrc	r0		
 14c:	63 00       	.word	0x0063;	????	
 14e:	01 ab       	dadd	r11,	r1	
 150:	41 00       	.word	0x0041;	????	
 152:	00 00       	.word	0x0000;	????	
 154:	02 91       	cmp	r1,	r2	
 156:	7c 00       	.word	0x007c;	????	
 158:	11 46 01 00 	mov	1(r6),	r1	;0x0001(r6)
 15c:	00 02       	.word	0x0200;	????	
 15e:	0f 01       	.word	0x010f;	????	
 160:	43 01       	.word	0x0143;	????	
 162:	00 00       	.word	0x0000;	????	
 164:	6a 01       	.word	0x016a;	????	
 166:	00 00       	.word	0x0000;	????	
 168:	01 01       	.word	0x0101;	????	
 16a:	12 4c 00 00 	mov	0(r12),	r2	;0x0000(r12)
 16e:	00 11       	rra	r0		
 170:	3e 00       	.word	0x003e;	????	
 172:	00 00       	.word	0x0000;	????	
 174:	02 11       	rra	r2		
 176:	01 3b       	jl	$-508    	;abs 0xff7a
 178:	00 00       	.word	0x0000;	????	
 17a:	00 6a       	addc	r10,	r0	
 17c:	01 00       	.word	0x0001;	????	
 17e:	00 01       	.word	0x0100;	????	
 180:	01 11       	rra	r1		
 182:	66 01       	.word	0x0166;	????	
 184:	00 00       	.word	0x0000;	????	
 186:	02 97       	cmp	r7,	r2	
 188:	01 63       	adc	r1		
 18a:	01 00       	.word	0x0001;	????	
 18c:	00 93       	tst	r0		
 18e:	01 00       	.word	0x0001;	????	
 190:	00 01       	.word	0x0100;	????	
 192:	01 0c       	.word	0x0c01;	????	
 194:	6a 01       	.word	0x016a;	????	
 196:	00 00       	.word	0x0000;	????	
 198:	11 19       	.word	0x1911;	????	
 19a:	00 00       	.word	0x0000;	????	
 19c:	00 02       	.word	0x0200;	????	
 19e:	99 01       	.word	0x0199;	????	
 1a0:	16 00       	.word	0x0016;	????	
 1a2:	00 00       	.word	0x0000;	????	
 1a4:	6a 01       	.word	0x016a;	????	
 1a6:	00 00       	.word	0x0000;	????	
 1a8:	01 01       	.word	0x0101;	????	
 1aa:	11 8e 01 00 	sub	1(r14),	r1	;0x0001(r14)
 1ae:	00 02       	.word	0x0200;	????	
 1b0:	9b 01       	.word	0x019b;	????	
 1b2:	8b 01       	.word	0x018b;	????	
 1b4:	00 00       	.word	0x0000;	????	
 1b6:	6a 01       	.word	0x016a;	????	
 1b8:	00 00       	.word	0x0000;	????	
 1ba:	01 01       	.word	0x0101;	????	
 1bc:	11 35       	jge	$+548    	;abs 0x3e0
 1be:	01 00       	.word	0x0001;	????	
 1c0:	00 02       	.word	0x0200;	????	
 1c2:	9d 01       	.word	0x019d;	????	
 1c4:	32 01       	.word	0x0132;	????	
 1c6:	00 00       	.word	0x0000;	????	
 1c8:	6a 01       	.word	0x016a;	????	
 1ca:	00 00       	.word	0x0000;	????	
 1cc:	01 01       	.word	0x0101;	????	
 1ce:	11 ed 00 00 	xor	0(r13),	r1	;0x0000(r13)
 1d2:	00 02       	.word	0x0200;	????	
 1d4:	9f 01       	.word	0x019f;	????	
 1d6:	ea 00       	.word	0x00ea;	????	
 1d8:	00 00       	.word	0x0000;	????	
 1da:	6a 01       	.word	0x016a;	????	
 1dc:	00 00       	.word	0x0000;	????	
 1de:	01 01       	.word	0x0101;	????	
 1e0:	11 3e       	jmp	$-988    	;abs 0xfe04
 1e2:	01 00       	.word	0x0001;	????	
 1e4:	00 02       	.word	0x0200;	????	
 1e6:	a1 01       	.word	0x01a1;	????	
 1e8:	3b 01       	.word	0x013b;	????	
 1ea:	00 00       	.word	0x0000;	????	
 1ec:	6a 01       	.word	0x016a;	????	
 1ee:	00 00       	.word	0x0000;	????	
 1f0:	01 01       	.word	0x0101;	????	
 1f2:	11 77 00 00 	subc	0(r7),	r1	;0x0000(r7)
 1f6:	00 02       	.word	0x0200;	????	
 1f8:	a3 01       	.word	0x01a3;	????	
 1fa:	74 00       	.word	0x0074;	????	
 1fc:	00 00       	.word	0x0000;	????	
 1fe:	6a 01       	.word	0x016a;	????	
 200:	00 00       	.word	0x0000;	????	
 202:	01 01       	.word	0x0101;	????	
 204:	11 2c       	jc	$+36     	;abs 0x228
 206:	01 00       	.word	0x0001;	????	
 208:	00 02       	.word	0x0200;	????	
 20a:	c0 01       	.word	0x01c0;	????	
 20c:	29 01       	.word	0x0129;	????	
 20e:	00 00       	.word	0x0000;	????	
 210:	16 02       	.word	0x0216;	????	
 212:	00 00       	.word	0x0000;	????	
 214:	01 01       	.word	0x0101;	????	
 216:	12 53       	inc	r2		
 218:	00 00       	.word	0x0000;	????	
 21a:	00 11       	rra	r0		
 21c:	8a 00       	.word	0x008a;	????	
 21e:	00 00       	.word	0x0000;	????	
 220:	02 c2       	bic	r2,	r2	
 222:	01 87       	sub	r7,	r1	
 224:	00 00       	.word	0x0000;	????	
 226:	00 16       	.word	0x1600;	????	
 228:	02 00       	.word	0x0002;	????	
 22a:	00 01       	.word	0x0100;	????	
 22c:	01 13       	reti			;return from interupt
 22e:	54 41 52 00 	mov.b	82(r1),	r4	;0x0052(r1)
 232:	02 c6       	bic	r6,	r2	
 234:	01 50       	add	r0,	r1	
 236:	00 00       	.word	0x0000;	????	
 238:	00 16       	.word	0x1600;	????	
 23a:	02 00       	.word	0x0002;	????	
 23c:	00 01       	.word	0x0100;	????	
 23e:	01 11       	rra	r1		
 240:	1b 01       	.word	0x011b;	????	
 242:	00 00       	.word	0x0000;	????	
 244:	02 c8       	bic	r8,	r2	
 246:	01 18       	.word	0x1801;	????	
 248:	01 00       	.word	0x0001;	????	
 24a:	00 16       	.word	0x1600;	????	
 24c:	02 00       	.word	0x0002;	????	
 24e:	00 01       	.word	0x0100;	????	
 250:	01 11       	rra	r1		
 252:	5c 01       	.word	0x015c;	????	
 254:	00 00       	.word	0x0000;	????	
 256:	02 69       	addc	r9,	r2	
 258:	02 59       	add	r9,	r2	
 25a:	01 00       	.word	0x0001;	????	
 25c:	00 16       	.word	0x1600;	????	
 25e:	02 00       	.word	0x0002;	????	
 260:	00 01       	.word	0x0100;	????	
 262:	01 11       	rra	r1		
 264:	2f 00       	.word	0x002f;	????	
 266:	00 00       	.word	0x0000;	????	
 268:	02 99       	cmp	r9,	r2	
 26a:	02 2c       	jc	$+6      	;abs 0x270
 26c:	00 00       	.word	0x0000;	????	
 26e:	00 93       	tst	r0		
 270:	01 00       	.word	0x0001;	????	
 272:	00 01       	.word	0x0100;	????	
 274:	01 11       	rra	r1		
 276:	5a 00       	.word	0x005a;	????	
 278:	00 00       	.word	0x0000;	????	
 27a:	02 9b       	cmp	r11,	r2	
 27c:	02 57       	add	r7,	r2	
 27e:	00 00       	.word	0x0000;	????	
 280:	00 93       	tst	r0		
 282:	01 00       	.word	0x0001;	????	
 284:	00 01       	.word	0x0100;	????	
 286:	01 14       	.word	0x1401;	????	
 288:	46 00       	.word	0x0046;	????	
 28a:	00 00       	.word	0x0000;	????	
 28c:	01 24       	jz	$+4      	;abs 0x290
 28e:	96 02       	.word	0x0296;	????	
 290:	00 00       	.word	0x0000;	????	
 292:	03 03       	.word	0x0303;	????	
 294:	01 02       	.word	0x0201;	????	
 296:	12 41 00 00 	mov	0(r1),	r2	;0x0000(r1)
 29a:	00 14       	.word	0x1400;	????	
 29c:	10 01       	.word	0x0110;	????	
 29e:	00 00       	.word	0x0000;	????	
 2a0:	01 26       	jz	$-1020   	;abs 0xfea4
 2a2:	16 02       	.word	0x0216;	????	
 2a4:	00 00       	.word	0x0000;	????	
 2a6:	03 03       	.word	0x0303;	????	
 2a8:	02 02       	.word	0x0202;	????	
 2aa:	14 94 01 00 	cmp	1(r4),	r4	;0x0001(r4)
 2ae:	00 01       	.word	0x0100;	????	
 2b0:	28 16       	.word	0x1628;	????	
 2b2:	02 00       	.word	0x0002;	????	
 2b4:	00 03       	.word	0x0300;	????	
 2b6:	03 04       	.word	0x0403;	????	
 2b8:	02 14       	.word	0x1402;	????	
 2ba:	92 00       	.word	0x0092;	????	
 2bc:	00 00       	.word	0x0000;	????	
 2be:	01 2a       	jnc	$-1020   	;abs 0xfec2
 2c0:	c8 02       	.word	0x02c8;	????	
 2c2:	00 00       	.word	0x0000;	????	
 2c4:	03 03       	.word	0x0303;	????	
 2c6:	00 02       	.word	0x0200;	????	
 2c8:	12 9e 00 00 	cmp	0(r14),	r2	;0x0000(r14)
 2cc:	00 14       	.word	0x1400;	????	
 2ce:	fd 00       	.word	0x00fd;	????	
 2d0:	00 00       	.word	0x0000;	????	
 2d2:	01 2c       	jc	$+4      	;abs 0x2d6
 2d4:	c8 02       	.word	0x02c8;	????	
 2d6:	00 00       	.word	0x0000;	????	
 2d8:	03 03       	.word	0x0303;	????	
 2da:	06 02       	.word	0x0206;	????	
 2dc:	11 46 01 00 	mov	1(r6),	r1	;0x0001(r6)
 2e0:	00 02       	.word	0x0200;	????	
 2e2:	0f 01       	.word	0x010f;	????	
 2e4:	43 01       	.word	0x0143;	????	
 2e6:	00 00       	.word	0x0000;	????	
 2e8:	6a 01       	.word	0x016a;	????	
 2ea:	00 00       	.word	0x0000;	????	
 2ec:	01 01       	.word	0x0101;	????	
 2ee:	11 3e       	jmp	$-988    	;abs 0xff12
 2f0:	00 00       	.word	0x0000;	????	
 2f2:	00 02       	.word	0x0200;	????	
 2f4:	11 01       	.word	0x0111;	????	
 2f6:	3b 00       	.word	0x003b;	????	
 2f8:	00 00       	.word	0x0000;	????	
 2fa:	6a 01       	.word	0x016a;	????	
 2fc:	00 00       	.word	0x0000;	????	
 2fe:	01 01       	.word	0x0101;	????	
 300:	11 66 01 00 	addc	1(r6),	r1	;0x0001(r6)
 304:	00 02       	.word	0x0200;	????	
 306:	97 01       	.word	0x0197;	????	
 308:	63 01       	.word	0x0163;	????	
 30a:	00 00       	.word	0x0000;	????	
 30c:	93 01       	.word	0x0193;	????	
 30e:	00 00       	.word	0x0000;	????	
 310:	01 01       	.word	0x0101;	????	
 312:	11 19       	.word	0x1911;	????	
 314:	00 00       	.word	0x0000;	????	
 316:	00 02       	.word	0x0200;	????	
 318:	99 01       	.word	0x0199;	????	
 31a:	16 00       	.word	0x0016;	????	
 31c:	00 00       	.word	0x0000;	????	
 31e:	6a 01       	.word	0x016a;	????	
 320:	00 00       	.word	0x0000;	????	
 322:	01 01       	.word	0x0101;	????	
 324:	11 8e 01 00 	sub	1(r14),	r1	;0x0001(r14)
 328:	00 02       	.word	0x0200;	????	
 32a:	9b 01       	.word	0x019b;	????	
 32c:	8b 01       	.word	0x018b;	????	
 32e:	00 00       	.word	0x0000;	????	
 330:	6a 01       	.word	0x016a;	????	
 332:	00 00       	.word	0x0000;	????	
 334:	01 01       	.word	0x0101;	????	
 336:	11 35       	jge	$+548    	;abs 0x55a
 338:	01 00       	.word	0x0001;	????	
 33a:	00 02       	.word	0x0200;	????	
 33c:	9d 01       	.word	0x019d;	????	
 33e:	32 01       	.word	0x0132;	????	
 340:	00 00       	.word	0x0000;	????	
 342:	6a 01       	.word	0x016a;	????	
 344:	00 00       	.word	0x0000;	????	
 346:	01 01       	.word	0x0101;	????	
 348:	11 ed 00 00 	xor	0(r13),	r1	;0x0000(r13)
 34c:	00 02       	.word	0x0200;	????	
 34e:	9f 01       	.word	0x019f;	????	
 350:	ea 00       	.word	0x00ea;	????	
 352:	00 00       	.word	0x0000;	????	
 354:	6a 01       	.word	0x016a;	????	
 356:	00 00       	.word	0x0000;	????	
 358:	01 01       	.word	0x0101;	????	
 35a:	11 3e       	jmp	$-988    	;abs 0xff7e
 35c:	01 00       	.word	0x0001;	????	
 35e:	00 02       	.word	0x0200;	????	
 360:	a1 01       	.word	0x01a1;	????	
 362:	3b 01       	.word	0x013b;	????	
 364:	00 00       	.word	0x0000;	????	
 366:	6a 01       	.word	0x016a;	????	
 368:	00 00       	.word	0x0000;	????	
 36a:	01 01       	.word	0x0101;	????	
 36c:	11 77 00 00 	subc	0(r7),	r1	;0x0000(r7)
 370:	00 02       	.word	0x0200;	????	
 372:	a3 01       	.word	0x01a3;	????	
 374:	74 00       	.word	0x0074;	????	
 376:	00 00       	.word	0x0000;	????	
 378:	6a 01       	.word	0x016a;	????	
 37a:	00 00       	.word	0x0000;	????	
 37c:	01 01       	.word	0x0101;	????	
 37e:	11 2c       	jc	$+36     	;abs 0x3a2
 380:	01 00       	.word	0x0001;	????	
 382:	00 02       	.word	0x0200;	????	
 384:	c0 01       	.word	0x01c0;	????	
 386:	29 01       	.word	0x0129;	????	
 388:	00 00       	.word	0x0000;	????	
 38a:	16 02       	.word	0x0216;	????	
 38c:	00 00       	.word	0x0000;	????	
 38e:	01 01       	.word	0x0101;	????	
 390:	11 8a 00 00 	sub	0(r10),	r1	;0x0000(r10)
 394:	00 02       	.word	0x0200;	????	
 396:	c2 01       	.word	0x01c2;	????	
 398:	87 00       	.word	0x0087;	????	
 39a:	00 00       	.word	0x0000;	????	
 39c:	16 02       	.word	0x0216;	????	
 39e:	00 00       	.word	0x0000;	????	
 3a0:	01 01       	.word	0x0101;	????	
 3a2:	13 54       	.word	0x5413;	????	Illegal as 2-op instr
 3a4:	41 52       	add.b	r2,	r1	
 3a6:	00 02       	.word	0x0200;	????	
 3a8:	c6 01       	.word	0x01c6;	????	
 3aa:	50 00       	.word	0x0050;	????	
 3ac:	00 00       	.word	0x0000;	????	
 3ae:	16 02       	.word	0x0216;	????	
 3b0:	00 00       	.word	0x0000;	????	
 3b2:	01 01       	.word	0x0101;	????	
 3b4:	11 1b       	.word	0x1b11;	????	
 3b6:	01 00       	.word	0x0001;	????	
 3b8:	00 02       	.word	0x0200;	????	
 3ba:	c8 01       	.word	0x01c8;	????	
 3bc:	18 01       	.word	0x0118;	????	
 3be:	00 00       	.word	0x0000;	????	
 3c0:	16 02       	.word	0x0216;	????	
 3c2:	00 00       	.word	0x0000;	????	
 3c4:	01 01       	.word	0x0101;	????	
 3c6:	11 5c 01 00 	add	1(r12),	r1	;0x0001(r12)
 3ca:	00 02       	.word	0x0200;	????	
 3cc:	69 02       	.word	0x0269;	????	
 3ce:	59 01       	.word	0x0159;	????	
 3d0:	00 00       	.word	0x0000;	????	
 3d2:	16 02       	.word	0x0216;	????	
 3d4:	00 00       	.word	0x0000;	????	
 3d6:	01 01       	.word	0x0101;	????	
 3d8:	11 2f       	jc	$-476    	;abs 0x1fc
 3da:	00 00       	.word	0x0000;	????	
 3dc:	00 02       	.word	0x0200;	????	
 3de:	99 02       	.word	0x0299;	????	
 3e0:	2c 00       	.word	0x002c;	????	
 3e2:	00 00       	.word	0x0000;	????	
 3e4:	93 01       	.word	0x0193;	????	
 3e6:	00 00       	.word	0x0000;	????	
 3e8:	01 01       	.word	0x0101;	????	
 3ea:	11 5a 00 00 	add	0(r10),	r1	;0x0000(r10)
 3ee:	00 02       	.word	0x0200;	????	
 3f0:	9b 02       	.word	0x029b;	????	
 3f2:	57 00       	.word	0x0057;	????	
 3f4:	00 00       	.word	0x0000;	????	
 3f6:	93 01       	.word	0x0193;	????	
 3f8:	00 00       	.word	0x0000;	????	
 3fa:	01 01       	.word	0x0101;	????	
	...

Disassembly of section .debug_abbrev:

00000000 <.debug_abbrev>:
   0:	01 11       	rra	r1		
   2:	01 25       	jz	$+516    	;abs 0x206
   4:	0e 13       	reti			;return from interupt
   6:	0b 03       	.word	0x030b;	????	
   8:	0e 1b       	.word	0x1b0e;	????	
   a:	0e 11       	rra	r14		
   c:	01 52       	add	r2,	r1	
   e:	01 55       	add	r5,	r1	
  10:	06 10       	rrc	r6		
  12:	06 00       	.word	0x0006;	????	
  14:	00 02       	.word	0x0200;	????	
  16:	24 00       	.word	0x0024;	????	
  18:	0b 0b       	.word	0x0b0b;	????	
  1a:	3e 0b       	.word	0x0b3e;	????	
  1c:	03 0e       	.word	0x0e03;	????	
  1e:	00 00       	.word	0x0000;	????	
  20:	03 24       	jz	$+8      	;abs 0x28
  22:	00 0b       	.word	0x0b00;	????	
  24:	0b 3e       	jmp	$-1000   	;abs 0xfc3c
  26:	0b 03       	.word	0x030b;	????	
  28:	08 00       	.word	0x0008;	????	
  2a:	00 04       	.word	0x0400;	????	
  2c:	16 00       	.word	0x0016;	????	
  2e:	03 0e       	.word	0x0e03;	????	
  30:	3a 0b       	.word	0x0b3a;	????	
  32:	3b 0b       	.word	0x0b3b;	????	
  34:	49 13       	.word	0x1349;	????	
  36:	00 00       	.word	0x0000;	????	
  38:	05 2e       	jc	$-1012   	;abs 0xfc44
  3a:	00 3f       	jmp	$-510    	;abs 0xfe3c
  3c:	0c 03       	.word	0x030c;	????	
  3e:	0e 3a       	jl	$-994    	;abs 0xfc5c
  40:	0b 3b       	jl	$-488    	;abs 0xfe58
  42:	0b 27       	jz	$-488    	;abs 0xfe5a
  44:	0c 11       	rra	r12		
  46:	01 12       	push	r1		
  48:	01 40       	mov	r0,	r1	
  4a:	0a 00       	.word	0x000a;	????	
  4c:	00 06       	.word	0x0600;	????	
  4e:	2e 01       	.word	0x012e;	????	
  50:	3f 0c       	.word	0x0c3f;	????	
  52:	03 0e       	.word	0x0e03;	????	
  54:	3a 0b       	.word	0x0b3a;	????	
  56:	3b 0b       	.word	0x0b3b;	????	
  58:	27 0c       	.word	0x0c27;	????	
  5a:	49 13       	.word	0x1349;	????	
  5c:	11 01       	.word	0x0111;	????	
  5e:	12 01       	.word	0x0112;	????	
  60:	40 0a       	.word	0x0a40;	????	
  62:	01 13       	reti			;return from interupt
  64:	00 00       	.word	0x0000;	????	
  66:	07 05       	.word	0x0507;	????	
  68:	00 03       	.word	0x0300;	????	
  6a:	08 3a       	jl	$-1006   	;abs 0xfc7c
  6c:	0b 3b       	jl	$-488    	;abs 0xfe84
  6e:	0b 49       	mov	r9,	r11	
  70:	13 02       	.word	0x0213;	????	
  72:	06 00       	.word	0x0006;	????	
  74:	00 08       	.word	0x0800;	????	
  76:	0f 00       	.word	0x000f;	????	
  78:	0b 0b       	.word	0x0b0b;	????	
  7a:	49 13       	.word	0x1349;	????	
  7c:	00 00       	.word	0x0000;	????	
  7e:	09 2e       	jc	$-1004   	;abs 0xfc92
  80:	01 3f       	jmp	$-508    	;abs 0xfe84
  82:	0c 03       	.word	0x030c;	????	
  84:	0e 3a       	jl	$-994    	;abs 0xfca2
  86:	0b 3b       	jl	$-488    	;abs 0xfe9e
  88:	0b 27       	jz	$-488    	;abs 0xfea0
  8a:	0c 11       	rra	r12		
  8c:	01 12       	push	r1		
  8e:	01 40       	mov	r0,	r1	
  90:	0a 01       	.word	0x010a;	????	
  92:	13 00       	.word	0x0013;	????	
  94:	00 0a       	.word	0x0a00;	????	
  96:	05 00       	.word	0x0005;	????	
  98:	03 08       	.word	0x0803;	????	
  9a:	3a 0b       	.word	0x0b3a;	????	
  9c:	3b 0b       	.word	0x0b3b;	????	
  9e:	49 13       	.word	0x1349;	????	
  a0:	02 0a       	.word	0x0a02;	????	
  a2:	00 00       	.word	0x0000;	????	
  a4:	0b 2e       	jc	$-1000   	;abs 0xfcbc
  a6:	01 3f       	jmp	$-508    	;abs 0xfeaa
  a8:	0c 03       	.word	0x030c;	????	
  aa:	0e 3a       	jl	$-994    	;abs 0xfcc8
  ac:	0b 3b       	jl	$-488    	;abs 0xfec4
  ae:	0b 27       	jz	$-488    	;abs 0xfec6
  b0:	0c 11       	rra	r12		
  b2:	01 12       	push	r1		
  b4:	01 40       	mov	r0,	r1	
  b6:	06 01       	.word	0x0106;	????	
  b8:	13 00       	.word	0x0013;	????	
  ba:	00 0c       	.word	0x0c00;	????	
  bc:	26 00       	.word	0x0026;	????	
  be:	49 13       	.word	0x1349;	????	
  c0:	00 00       	.word	0x0000;	????	
  c2:	0d 2e       	jc	$-996    	;abs 0xfcde
  c4:	00 3f       	jmp	$-510    	;abs 0xfec6
  c6:	0c 03       	.word	0x030c;	????	
  c8:	0e 3a       	jl	$-994    	;abs 0xfce6
  ca:	0b 3b       	jl	$-488    	;abs 0xfee2
  cc:	0b 27       	jz	$-488    	;abs 0xfee4
  ce:	0c 11       	rra	r12		
  d0:	01 12       	push	r1		
  d2:	01 40       	mov	r0,	r1	
  d4:	06 00       	.word	0x0006;	????	
  d6:	00 0e       	.word	0x0e00;	????	
  d8:	2e 00       	.word	0x002e;	????	
  da:	3f 0c       	.word	0x0c3f;	????	
  dc:	03 0e       	.word	0x0e03;	????	
  de:	3a 0b       	.word	0x0b3a;	????	
  e0:	3b 0b       	.word	0x0b3b;	????	
  e2:	11 01       	.word	0x0111;	????	
  e4:	12 01       	.word	0x0112;	????	
  e6:	40 0a       	.word	0x0a40;	????	
  e8:	00 00       	.word	0x0000;	????	
  ea:	0f 2e       	jc	$-992    	;abs 0xfd0a
  ec:	01 3f       	jmp	$-508    	;abs 0xfef0
  ee:	0c 03       	.word	0x030c;	????	
  f0:	0e 3a       	jl	$-994    	;abs 0xfd0e
  f2:	0b 3b       	jl	$-488    	;abs 0xff0a
  f4:	0b 27       	jz	$-488    	;abs 0xff0c
  f6:	0c 49       	mov	r9,	r12	
  f8:	13 11       	rra	#1		;r3 As==01
  fa:	01 12       	push	r1		
  fc:	01 40       	mov	r0,	r1	
  fe:	06 01       	.word	0x0106;	????	
 100:	13 00       	.word	0x0013;	????	
 102:	00 10       	rrc	r0		
 104:	34 00       	.word	0x0034;	????	
 106:	03 08       	.word	0x0803;	????	
 108:	3a 0b       	.word	0x0b3a;	????	
 10a:	3b 0b       	.word	0x0b3b;	????	
 10c:	49 13       	.word	0x1349;	????	
 10e:	02 0a       	.word	0x0a02;	????	
 110:	00 00       	.word	0x0000;	????	
 112:	11 34       	jge	$+36     	;abs 0x136
 114:	00 03       	.word	0x0300;	????	
 116:	0e 3a       	jl	$-994    	;abs 0xfd34
 118:	0b 3b       	jl	$-488    	;abs 0xff30
 11a:	05 87       	sub	r7,	r5	
 11c:	40 0e       	.word	0x0e40;	????	
 11e:	49 13       	.word	0x1349;	????	
 120:	3f 0c       	.word	0x0c3f;	????	
 122:	3c 0c       	.word	0x0c3c;	????	
 124:	00 00       	.word	0x0000;	????	
 126:	12 35       	jge	$+550    	;abs 0x34c
 128:	00 49       	br	r9		
 12a:	13 00       	.word	0x0013;	????	
 12c:	00 13       	reti			
 12e:	34 00       	.word	0x0034;	????	
 130:	03 08       	.word	0x0803;	????	
 132:	3a 0b       	.word	0x0b3a;	????	
 134:	3b 05       	.word	0x053b;	????	
 136:	87 40 0e 49 	mov	r0,	18702(r7);0x490e(r7)
 13a:	13 3f       	jmp	$-472    	;abs 0xff62
 13c:	0c 3c       	jmp	$+26     	;abs 0x156
 13e:	0c 00       	.word	0x000c;	????	
 140:	00 14       	.word	0x1400;	????	
 142:	34 00       	.word	0x0034;	????	
 144:	03 0e       	.word	0x0e03;	????	
 146:	3a 0b       	.word	0x0b3a;	????	
 148:	3b 0b       	.word	0x0b3b;	????	
 14a:	49 13       	.word	0x1349;	????	
 14c:	02 0a       	.word	0x0a02;	????	
 14e:	00 00       	.word	0x0000;	????	
	...

Disassembly of section .debug_line:

00000000 <.debug_line>:
   0:	b6 02       	.word	0x02b6;	????	
   2:	00 00       	.word	0x0000;	????	
   4:	02 00       	.word	0x0002;	????	
   6:	8a 00       	.word	0x008a;	????	
   8:	00 00       	.word	0x0000;	????	
   a:	01 01       	.word	0x0101;	????	
   c:	f6 f5 0a 00 	and.b	@r5+,	10(r6)	;0x000a(r6)
  10:	01 01       	.word	0x0101;	????	
  12:	01 01       	.word	0x0101;	????	
  14:	00 00       	.word	0x0000;	????	
  16:	00 01       	.word	0x0100;	????	
  18:	2f 75       	subc	@r5,	r15	
  1a:	73 72       	.word	0x7273;	????	Illegal as 2-op instr
  1c:	2f 6c       	addc	@r12,	r15	
  1e:	6f 63       	addc.b	#2,	r15	;r3 As==10
  20:	61 6c       	addc.b	@r12,	r1	
  22:	2f 6d       	addc	@r13,	r15	
  24:	73 70       	.word	0x7073;	????	Illegal as 2-op instr
  26:	34 33       	jn	$-406    	;abs 0xfe90
  28:	30 2d       	jc	$+610    	;abs 0x28a
  2a:	75 6e       	addc.b	@r14+,	r5	
  2c:	69 61       	addc.b	@r1,	r9	
  2e:	72 63       	addc.b	#-1,	r2	;r3 As==11
  30:	68 2d       	jc	$+722    	;abs 0x302
  32:	32 30       	jn	$+102    	;abs 0x98
  34:	31 31       	jn	$+612    	;abs 0x298
  36:	30 37       	jge	$-414    	;abs 0xfe98
  38:	31 36       	jge	$-924    	;abs 0xfc9c
  3a:	2f 6c       	addc	@r12,	r15	
  3c:	69 62       	addc.b	#4,	r9	;r2 As==10
  3e:	2f 67       	addc	@r7,	r15	
  40:	63 63       	.word	0x6363;	????	Illegal as 2-op instr
  42:	2f 6d       	addc	@r13,	r15	
  44:	73 70       	.word	0x7073;	????	Illegal as 2-op instr
  46:	34 33       	jn	$-406    	;abs 0xfeb0
  48:	30 2f       	jc	$-414    	;abs 0xfeaa
  4a:	34 2e       	jc	$-918    	;abs 0xfcb4
  4c:	35 2e       	jc	$-916    	;abs 0xfcb8
  4e:	33 2f       	jc	$-408    	;abs 0xfeb6
  50:	2e 2e       	jc	$-930    	;abs 0xfcae
  52:	2f 2e       	jc	$-928    	;abs 0xfcb2
  54:	2e 2f       	jc	$-418    	;abs 0xfeb2
  56:	2e 2e       	jc	$-930    	;abs 0xfcb4
  58:	2f 2e       	jc	$-928    	;abs 0xfcb8
  5a:	2e 2f       	jc	$-418    	;abs 0xfeb8
  5c:	6d 73       	subc.b	#2,	r13	;r3 As==10
  5e:	70 34       	jge	$+226    	;abs 0x140
  60:	33 30       	jn	$+104    	;abs 0xc8
  62:	2f 69       	addc	@r9,	r15	
  64:	6e 63       	addc.b	#2,	r14	;r3 As==10
  66:	6c 75       	subc.b	@r5,	r12	
  68:	64 65       	addc.b	@r5,	r4	
  6a:	00 00       	.word	0x0000;	????	
  6c:	6d 61       	addc.b	@r1,	r13	
  6e:	69 6e       	addc.b	@r14,	r9	
  70:	2e 63       	addc	#2,	r14	;r3 As==10
  72:	00 00       	.word	0x0000;	????	
  74:	00 00       	.word	0x0000;	????	
  76:	6d 73       	subc.b	#2,	r13	;r3 As==10
  78:	70 34       	jge	$+226    	;abs 0x15a
  7a:	33 30       	jn	$+104    	;abs 0xe2
  7c:	67 32       	jn	$-816    	;abs 0xfd4c
  7e:	32 33       	jn	$-410    	;abs 0xfee4
  80:	31 2e       	jc	$-924    	;abs 0xfce4
  82:	68 00       	.word	0x0068;	????	
  84:	01 00       	.word	0x0001;	????	
  86:	00 73       	sbc	r0		
  88:	74 64       	addc.b	@r4+,	r4	
  8a:	69 6e       	addc.b	@r14,	r9	
  8c:	74 2e       	jc	$-790    	;abs 0xfd76
  8e:	68 00       	.word	0x0068;	????	
  90:	01 00       	.word	0x0001;	????	
  92:	00 00       	.word	0x0000;	????	
  94:	00 03       	.word	0x0300;	????	
  96:	02 a2       	dadd	r2,	r2	
  98:	f8 41 00 03 	pop.b	768(r8)	;0x0300(r8)
  9c:	02 a2       	dadd	r2,	r2	
  9e:	f8 15       	.word	0x15f8;	????	
  a0:	00 03       	.word	0x0300;	????	
  a2:	02 a6       	dadd	r6,	r2	
  a4:	f8 15       	.word	0x15f8;	????	
  a6:	00 03       	.word	0x0300;	????	
  a8:	02 aa       	dadd	r10,	r2	
  aa:	f8 16       	.word	0x16f8;	????	
  ac:	00 03       	.word	0x0300;	????	
  ae:	02 ae       	dadd	r14,	r2	
  b0:	f8 15       	.word	0x15f8;	????	
  b2:	00 03       	.word	0x0300;	????	
  b4:	02 b4       	bit	r4,	r2	
  b6:	f8 15       	.word	0x15f8;	????	
  b8:	00 03       	.word	0x0300;	????	
  ba:	02 b8       	bit	r8,	r2	
  bc:	f8 15       	.word	0x15f8;	????	
  be:	00 03       	.word	0x0300;	????	
  c0:	02 ba       	bit	r10,	r2	
  c2:	f8 16       	.word	0x16f8;	????	
  c4:	00 03       	.word	0x0300;	????	
  c6:	02 ba       	bit	r10,	r2	
  c8:	f8 15       	.word	0x15f8;	????	
  ca:	00 03       	.word	0x0300;	????	
  cc:	02 c2       	bic	r2,	r2	
  ce:	f8 18       	.word	0x18f8;	????	
  d0:	00 03       	.word	0x0300;	????	
  d2:	02 ca       	bic	r10,	r2	
  d4:	f8 15       	.word	0x15f8;	????	
  d6:	00 03       	.word	0x0300;	????	
  d8:	02 ce       	bic	r14,	r2	
  da:	f8 16       	.word	0x16f8;	????	
  dc:	00 03       	.word	0x0300;	????	
  de:	02 d2       	bis	r2,	r2	
  e0:	f8 0e       	.word	0x0ef8;	????	
  e2:	00 03       	.word	0x0300;	????	
  e4:	02 d4       	bis	r4,	r2	
  e6:	f8 1b       	.word	0x1bf8;	????	
  e8:	00 03       	.word	0x0300;	????	
  ea:	02 d6       	bis	r6,	r2	
  ec:	f8 16       	.word	0x16f8;	????	
  ee:	00 03       	.word	0x0300;	????	
  f0:	02 d6       	bis	r6,	r2	
  f2:	f8 15       	.word	0x15f8;	????	
  f4:	00 03       	.word	0x0300;	????	
  f6:	02 dc       	bis	r12,	r2	
  f8:	f8 16       	.word	0x16f8;	????	
  fa:	00 03       	.word	0x0300;	????	
  fc:	02 e2       	xor	r2,	r2	
  fe:	f8 16       	.word	0x16f8;	????	
 100:	00 03       	.word	0x0300;	????	
 102:	02 e6       	xor	r6,	r2	
 104:	f8 15       	.word	0x15f8;	????	
 106:	00 03       	.word	0x0300;	????	
 108:	02 ec       	xor	r12,	r2	
 10a:	f8 16       	.word	0x16f8;	????	
 10c:	00 03       	.word	0x0300;	????	
 10e:	02 f2       	and	r2,	r2	
 110:	f8 15       	.word	0x15f8;	????	
 112:	00 03       	.word	0x0300;	????	
 114:	02 f8       	and	r8,	r2	
 116:	f8 16       	.word	0x16f8;	????	
 118:	00 03       	.word	0x0300;	????	
 11a:	02 fe       	and	r14,	r2	
 11c:	f8 15       	.word	0x15f8;	????	
 11e:	00 03       	.word	0x0300;	????	
 120:	02 04       	.word	0x0402;	????	
 122:	f9 15       	.word	0x15f9;	????	
 124:	00 03       	.word	0x0300;	????	
 126:	02 0a       	.word	0x0a02;	????	
 128:	f9 16       	.word	0x16f9;	????	
 12a:	00 03       	.word	0x0300;	????	
 12c:	02 10       	rrc	r2		
 12e:	f9 16       	.word	0x16f9;	????	
 130:	00 03       	.word	0x0300;	????	
 132:	02 18       	.word	0x1802;	????	
 134:	f9 15       	.word	0x15f9;	????	
 136:	00 03       	.word	0x0300;	????	
 138:	02 1a       	.word	0x1a02;	????	
 13a:	f9 17       	.word	0x17f9;	????	
 13c:	00 03       	.word	0x0300;	????	
 13e:	02 1e       	.word	0x1e02;	????	
 140:	f9 15       	.word	0x15f9;	????	
 142:	00 03       	.word	0x0300;	????	
 144:	02 24       	jz	$+6      	;abs 0x14a
 146:	f9 15       	.word	0x15f9;	????	
 148:	00 03       	.word	0x0300;	????	
 14a:	02 2a       	jnc	$-1018   	;abs 0xfd50
 14c:	f9 01       	.word	0x01f9;	????	
 14e:	00 03       	.word	0x0300;	????	
 150:	02 30       	jn	$+6      	;abs 0x156
 152:	f9 15       	.word	0x15f9;	????	
 154:	00 03       	.word	0x0300;	????	
 156:	02 34       	jge	$+6      	;abs 0x15c
 158:	f9 18       	.word	0x18f9;	????	
 15a:	00 03       	.word	0x0300;	????	
 15c:	02 34       	jge	$+6      	;abs 0x162
 15e:	f9 15       	.word	0x15f9;	????	
 160:	00 03       	.word	0x0300;	????	
 162:	02 38       	jl	$+6      	;abs 0x168
 164:	f9 16       	.word	0x16f9;	????	
 166:	00 03       	.word	0x0300;	????	
 168:	02 3e       	jmp	$-1018   	;abs 0xfd6e
 16a:	f9 15       	.word	0x15f9;	????	
 16c:	00 03       	.word	0x0300;	????	
 16e:	02 44       	mov	r4,	r2	
 170:	f9 16       	.word	0x16f9;	????	
 172:	00 03       	.word	0x0300;	????	
 174:	02 4a       	mov	r10,	r2	
 176:	f9 15       	.word	0x15f9;	????	
 178:	00 03       	.word	0x0300;	????	
 17a:	02 50       	add	r0,	r2	
 17c:	f9 15       	.word	0x15f9;	????	
 17e:	00 03       	.word	0x0300;	????	
 180:	02 56       	add	r6,	r2	
 182:	f9 15       	.word	0x15f9;	????	
 184:	00 03       	.word	0x0300;	????	
 186:	02 5c       	add	r12,	r2	
 188:	f9 16       	.word	0x16f9;	????	
 18a:	00 03       	.word	0x0300;	????	
 18c:	02 60       	addc	r0,	r2	
 18e:	f9 15       	.word	0x15f9;	????	
 190:	00 03       	.word	0x0300;	????	
 192:	02 66       	addc	r6,	r2	
 194:	f9 15       	.word	0x15f9;	????	
 196:	00 03       	.word	0x0300;	????	
 198:	02 68       	addc	r8,	r2	
 19a:	f9 18       	.word	0x18f9;	????	
 19c:	00 03       	.word	0x0300;	????	
 19e:	02 6a       	addc	r10,	r2	
 1a0:	f9 15       	.word	0x15f9;	????	
 1a2:	00 03       	.word	0x0300;	????	
 1a4:	02 72       	subc	r2,	r2	
 1a6:	f9 15       	.word	0x15f9;	????	
 1a8:	00 03       	.word	0x0300;	????	
 1aa:	02 78       	subc	r8,	r2	
 1ac:	f9 15       	.word	0x15f9;	????	
 1ae:	00 03       	.word	0x0300;	????	
 1b0:	02 7e       	subc	r14,	r2	
 1b2:	f9 15       	.word	0x15f9;	????	
 1b4:	00 03       	.word	0x0300;	????	
 1b6:	02 84       	sub	r4,	r2	
 1b8:	f9 15       	.word	0x15f9;	????	
 1ba:	00 03       	.word	0x0300;	????	
 1bc:	02 8c       	sub	r12,	r2	
 1be:	f9 16       	.word	0x16f9;	????	
 1c0:	00 03       	.word	0x0300;	????	
 1c2:	02 92       	cmp	r2,	r2	
 1c4:	f9 15       	.word	0x15f9;	????	
 1c6:	00 03       	.word	0x0300;	????	
 1c8:	02 a0       	dadd	r0,	r2	
 1ca:	f9 16       	.word	0x16f9;	????	
 1cc:	00 03       	.word	0x0300;	????	
 1ce:	02 b0       	bit	r0,	r2	
 1d0:	f9 17       	.word	0x17f9;	????	
 1d2:	00 03       	.word	0x0300;	????	
 1d4:	02 b8       	bit	r8,	r2	
 1d6:	f9 18       	.word	0x18f9;	????	
 1d8:	00 03       	.word	0x0300;	????	
 1da:	02 be       	bit	r14,	r2	
 1dc:	f9 16       	.word	0x16f9;	????	
 1de:	00 03       	.word	0x0300;	????	
 1e0:	02 c6       	bic	r6,	r2	
 1e2:	f9 16       	.word	0x16f9;	????	
 1e4:	00 03       	.word	0x0300;	????	
 1e6:	02 cc       	bic	r12,	r2	
 1e8:	f9 15       	.word	0x15f9;	????	
 1ea:	00 03       	.word	0x0300;	????	
 1ec:	02 d2       	bis	r2,	r2	
 1ee:	f9 16       	.word	0x16f9;	????	
 1f0:	00 03       	.word	0x0300;	????	
 1f2:	02 d6       	bis	r6,	r2	
 1f4:	f9 16       	.word	0x16f9;	????	
 1f6:	00 03       	.word	0x0300;	????	
 1f8:	02 dc       	bis	r12,	r2	
 1fa:	f9 15       	.word	0x15f9;	????	
 1fc:	00 03       	.word	0x0300;	????	
 1fe:	02 e0       	xor	r0,	r2	
 200:	f9 16       	.word	0x16f9;	????	
 202:	00 03       	.word	0x0300;	????	
 204:	02 ee       	xor	r14,	r2	
 206:	f9 15       	.word	0x15f9;	????	
 208:	00 03       	.word	0x0300;	????	
 20a:	02 f4       	and	r4,	r2	
 20c:	f9 15       	.word	0x15f9;	????	
 20e:	00 03       	.word	0x0300;	????	
 210:	02 fa       	and	r10,	r2	
 212:	f9 15       	.word	0x15f9;	????	
 214:	00 03       	.word	0x0300;	????	
 216:	02 00       	.word	0x0002;	????	
 218:	fa 17       	.word	0x17fa;	????	
 21a:	00 03       	.word	0x0300;	????	
 21c:	02 08       	.word	0x0802;	????	
 21e:	fa 15       	.word	0x15fa;	????	
 220:	00 03       	.word	0x0300;	????	
 222:	02 0e       	.word	0x0e02;	????	
 224:	fa 16       	.word	0x16fa;	????	
 226:	00 03       	.word	0x0300;	????	
 228:	02 14       	.word	0x1402;	????	
 22a:	fa 15       	.word	0x15fa;	????	
 22c:	00 03       	.word	0x0300;	????	
 22e:	02 18       	.word	0x1802;	????	
 230:	fa 17       	.word	0x17fa;	????	
 232:	00 03       	.word	0x0300;	????	
 234:	02 1c       	.word	0x1c02;	????	
 236:	fa 17       	.word	0x17fa;	????	
 238:	00 03       	.word	0x0300;	????	
 23a:	02 1c       	.word	0x1c02;	????	
 23c:	fa 15       	.word	0x15fa;	????	
 23e:	00 03       	.word	0x0300;	????	
 240:	02 20       	jnz	$+6      	;abs 0x246
 242:	fa 15       	.word	0x15fa;	????	
 244:	00 03       	.word	0x0300;	????	
 246:	02 26       	jz	$-1018   	;abs 0xfe4c
 248:	fa 15       	.word	0x15fa;	????	
 24a:	00 03       	.word	0x0300;	????	
 24c:	02 2f       	jc	$-506    	;abs 0x52
 24e:	fa 00       	.word	0x00fa;	????	
 250:	01 01       	.word	0x0101;	????	
 252:	00 03       	.word	0x0300;	????	
 254:	02 38       	jl	$+6      	;abs 0x25a
 256:	f8 b4 00 03 	bit.b	@r4+,	768(r8)	;0x0300(r8)
 25a:	02 3a       	jl	$-1018   	;abs 0xfe60
 25c:	f8 15       	.word	0x15f8;	????	
 25e:	00 03       	.word	0x0300;	????	
 260:	02 40       	mov	r0,	r2	
 262:	f8 15       	.word	0x15f8;	????	
 264:	00 03       	.word	0x0300;	????	
 266:	02 46       	mov	r6,	r2	
 268:	f8 15       	.word	0x15f8;	????	
 26a:	00 03       	.word	0x0300;	????	
 26c:	02 4c       	mov	r12,	r2	
 26e:	f8 16       	.word	0x16f8;	????	
 270:	00 03       	.word	0x0300;	????	
 272:	02 50       	add	r0,	r2	
 274:	f8 15       	.word	0x15f8;	????	
 276:	00 03       	.word	0x0300;	????	
 278:	02 54       	add	r4,	r2	
 27a:	f8 16       	.word	0x16f8;	????	
 27c:	00 03       	.word	0x0300;	????	
 27e:	02 56       	add	r6,	r2	
 280:	f8 19       	.word	0x19f8;	????	
 282:	00 03       	.word	0x0300;	????	
 284:	02 60       	addc	r0,	r2	
 286:	f8 15       	.word	0x15f8;	????	
 288:	00 03       	.word	0x0300;	????	
 28a:	02 68       	addc	r8,	r2	
 28c:	f8 15       	.word	0x15f8;	????	
 28e:	00 03       	.word	0x0300;	????	
 290:	02 6c       	addc	r12,	r2	
 292:	f8 15       	.word	0x15f8;	????	
 294:	00 03       	.word	0x0300;	????	
 296:	02 72       	subc	r2,	r2	
 298:	f8 17       	.word	0x17f8;	????	
 29a:	00 03       	.word	0x0300;	????	
 29c:	02 78       	subc	r8,	r2	
 29e:	f8 15       	.word	0x15f8;	????	
 2a0:	00 03       	.word	0x0300;	????	
 2a2:	02 7e       	subc	r14,	r2	
 2a4:	f8 15       	.word	0x15f8;	????	
 2a6:	00 03       	.word	0x0300;	????	
 2a8:	02 86       	sub	r6,	r2	
 2aa:	f8 15       	.word	0x15f8;	????	
 2ac:	00 03       	.word	0x0300;	????	
 2ae:	02 8e       	sub	r14,	r2	
 2b0:	f8 15       	.word	0x15f8;	????	
 2b2:	00 03       	.word	0x0300;	????	
 2b4:	02 98       	cmp	r8,	r2	
 2b6:	f8 00       	.word	0x00f8;	????	
 2b8:	01 01       	.word	0x0101;	????	

Disassembly of section .debug_frame:

00000000 <.debug_frame>:
   0:	0e 00       	.word	0x000e;	????	
   2:	00 00       	.word	0x0000;	????	
   4:	ff ff ff ff 	and.b	@r15+,	-1(r15)	;0xffff(r15)
   8:	01 00       	.word	0x0001;	????	
   a:	01 7e       	subc	r14,	r1	
   c:	00 0c       	.word	0x0c00;	????	
   e:	01 02       	.word	0x0201;	????	
  10:	80 01       	.word	0x0180;	????	
  12:	08 00       	.word	0x0008;	????	
  14:	00 00       	.word	0x0000;	????	
  16:	00 00       	.word	0x0000;	????	
  18:	00 00       	.word	0x0000;	????	
  1a:	a2 f8 18 00 	and	@r8,	&0x0018	
  1e:	08 00       	.word	0x0008;	????	
  20:	00 00       	.word	0x0000;	????	
  22:	00 00       	.word	0x0000;	????	
  24:	00 00       	.word	0x0000;	????	
  26:	ba f8 1c 00 	and	@r8+,	28(r10)	;0x001c(r10)
  2a:	08 00       	.word	0x0008;	????	
  2c:	00 00       	.word	0x0000;	????	
  2e:	00 00       	.word	0x0000;	????	
  30:	00 00       	.word	0x0000;	????	
  32:	d6 f8 44 00 	and.b	68(r8),	14(r6)	;0x0044(r8), 0x000e(r6)
  36:	0e 00 
  38:	00 00       	.word	0x0000;	????	
  3a:	00 00       	.word	0x0000;	????	
  3c:	00 00       	.word	0x0000;	????	
  3e:	1a f9 1a 00 	and	26(r9),	r10	;0x001a(r9)
  42:	42 0e       	.word	0x0e42;	????	
  44:	04 8b       	sub	r11,	r4	
  46:	02 00       	.word	0x0002;	????	
  48:	08 00       	.word	0x0008;	????	
  4a:	00 00       	.word	0x0000;	????	
  4c:	00 00       	.word	0x0000;	????	
  4e:	00 00       	.word	0x0000;	????	
  50:	34 f9       	and	@r9+,	r4	
  52:	34 00       	.word	0x0034;	????	
  54:	0e 00       	.word	0x000e;	????	
  56:	00 00       	.word	0x0000;	????	
  58:	00 00       	.word	0x0000;	????	
  5a:	00 00       	.word	0x0000;	????	
  5c:	68 f9       	and.b	@r9,	r8	
  5e:	b4 00       	.word	0x00b4;	????	
  60:	42 0e       	.word	0x0e42;	????	
  62:	04 8f       	sub	r15,	r4	
  64:	02 00       	.word	0x0002;	????	
  66:	08 00       	.word	0x0008;	????	
  68:	00 00       	.word	0x0000;	????	
  6a:	00 00       	.word	0x0000;	????	
  6c:	00 00       	.word	0x0000;	????	
  6e:	1c fa 0c 00 	and	12(r10),r12	;0x000c(r10)
  72:	0c 00       	.word	0x000c;	????	
  74:	00 00       	.word	0x0000;	????	
  76:	00 00       	.word	0x0000;	????	
  78:	00 00       	.word	0x0000;	????	
  7a:	38 f8       	and	@r8+,	r8	
  7c:	60 00       	.word	0x0060;	????	
  7e:	42 0e       	.word	0x0e42;	????	
  80:	04 00       	.word	0x0004;	????	

Disassembly of section .debug_str:

00000000 <.debug_str>:
   0:	75 61       	addc.b	@r1+,	r5	
   2:	72 74       	subc.b	@r4+,	r2	
   4:	5f 69 6e 69 	addc.b	26990(r9),r15	;0x696e(r9)
   8:	74 00       	.word	0x0074;	????	
   a:	63 61       	.word	0x6163;	????	Illegal as 2-op instr
   c:	6e 64       	addc.b	@r4,	r14	
   e:	6c 65       	addc.b	@r5,	r12	
  10:	5f 69 6e 69 	addc.b	26990(r9),r15	;0x696e(r9)
  14:	74 00       	.word	0x0074;	????	
  16:	2a 5f       	add	@r15,	r10	
  18:	5f 50 31 4f 	add.b	0x4f31,	r15	;PC rel. 0x04f4d
  1c:	55 54 00 6d 	add.b	27904(r4),r5	;0x6d00(r4)
  20:	61 69       	addc.b	@r9,	r1	
  22:	6e 00       	.word	0x006e;	????	
  24:	75 69       	addc.b	@r9+,	r5	
  26:	6e 74       	subc.b	@r4,	r14	
  28:	38 5f       	add	@r15+,	r8	
  2a:	74 00       	.word	0x0074;	????	
  2c:	2a 5f       	add	@r15,	r10	
  2e:	5f 43       	mov.b	#1,	r15	;r3 As==01
  30:	41 4c       	mov.b	r12,	r1	
  32:	44 43       	clr.b	r4		
  34:	4f 5f       	rla.b	r15		
  36:	31 4d       	mov	@r13+,	r1	
  38:	48 5a       	add.b	r10,	r8	
  3a:	00 2a       	jnc	$-1022   	;abs 0xfc3c
  3c:	5f 5f 42 43 	add.b	17218(r15),r15	;0x4342(r15)
  40:	53 43       	.word	0x4353;	????	Illegal as 2-op instr
  42:	54 4c 31 00 	mov.b	49(r12),r4	;0x0031(r12)
  46:	62 69       	addc.b	@r9,	r2	
  48:	74 5f       	add.b	@r15+,	r4	
  4a:	63 6f       	.word	0x6f63;	????	Illegal as 2-op instr
  4c:	75 6e       	addc.b	@r14+,	r5	
  4e:	74 00       	.word	0x0074;	????	
  50:	2a 5f       	add	@r15,	r10	
  52:	5f 54 41 52 	add.b	21057(r4),r15	;0x5241(r4)
  56:	00 2a       	jnc	$-1022   	;abs 0xfc58
  58:	5f 5f 43 41 	add.b	16707(r15),r15	;0x4143(r15)
  5c:	4c 42       	mov.b	r2,	r12	
  5e:	43 31       	jn	$+648    	;abs 0x2e6
  60:	5f 31       	jn	$+704    	;abs 0x320
  62:	4d 48       	mov.b	r8,	r13	
  64:	5a 00       	.word	0x005a;	????	
  66:	6c 6f       	addc.b	@r15,	r12	
  68:	6e 67       	addc.b	@r7,	r14	
  6a:	20 6c       	addc	@r12,	r0	
  6c:	6f 6e       	addc.b	@r14,	r15	
  6e:	67 20       	jnz	$+208    	;abs 0x13e
  70:	69 6e       	addc.b	@r14,	r9	
  72:	74 00       	.word	0x0074;	????	
  74:	2a 5f       	add	@r15,	r10	
  76:	5f 50 31 53 	add.b	0x5331,	r15	;PC rel. 0x053ab
  7a:	45 4c       	mov.b	r12,	r5	
  7c:	00 75       	subc	r5,	r0	
  7e:	61 72       	subc.b	#4,	r1	;r2 As==10
  80:	74 5f       	add.b	@r15+,	r4	
  82:	67 65       	addc.b	@r5,	r7	
  84:	74 63       	addc.b	#-1,	r4	;r3 As==11
  86:	00 2a       	jnc	$-1022   	;abs 0xfc88
  88:	5f 5f 54 41 	add.b	16724(r15),r15	;0x4154(r15)
  8c:	43 43       	clr.b	#0		;r3 As==00
  8e:	54 4c 30 00 	mov.b	48(r12),r4	;0x0030(r12)
  92:	69 73       	subc.b	#2,	r9	;r3 As==10
  94:	5f 72 65 63 	subc.b	&0x6365,r15	
  98:	65 69       	addc.b	@r9,	r5	
  9a:	76 69       	addc.b	@r9+,	r6	
  9c:	6e 67       	addc.b	@r7,	r14	
  9e:	00 2f       	jc	$-510    	;abs 0xfea0
  a0:	55 73       	subc.b	#1,	r5	;r3 As==01
  a2:	65 72       	subc.b	#4,	r5	;r2 As==10
  a4:	73 2f       	jc	$-280    	;abs 0xff8c
  a6:	74 6b       	addc.b	@r11+,	r4	
  a8:	2f 50       	add	@r0,	r15	
  aa:	72 6f       	addc.b	@r15+,	r2	
  ac:	6a 65       	addc.b	@r5,	r10	
  ae:	63 74       	.word	0x7463;	????	Illegal as 2-op instr
  b0:	73 2f       	jc	$-280    	;abs 0xff98
  b2:	6d 73       	subc.b	#2,	r13	;r3 As==10
  b4:	70 34       	jge	$+226    	;abs 0x196
  b6:	33 30       	jn	$+104    	;abs 0x11e
  b8:	2f 63       	addc	#2,	r15	;r3 As==10
  ba:	61 6e       	addc.b	@r14,	r1	
  bc:	64 6c       	addc.b	@r12,	r4	
  be:	65 2d       	jc	$+716    	;abs 0x38a
  c0:	68 61       	addc.b	@r1,	r8	
  c2:	63 6b       	.word	0x6b63;	????	Illegal as 2-op instr
  c4:	00 75       	subc	r5,	r0	
  c6:	6e 73       	subc.b	#2,	r14	;r3 As==10
  c8:	69 67       	addc.b	@r7,	r9	
  ca:	6e 65       	addc.b	@r5,	r14	
  cc:	64 20       	jnz	$+202    	;abs 0x196
  ce:	63 68       	.word	0x6863;	????	Illegal as 2-op instr
  d0:	61 72       	subc.b	#4,	r1	;r2 As==10
  d2:	00 6c       	addc	r12,	r0	
  d4:	6f 6e       	addc.b	@r14,	r15	
  d6:	67 20       	jnz	$+208    	;abs 0x1a6
  d8:	6c 6f       	addc.b	@r15,	r12	
  da:	6e 67       	addc.b	@r7,	r14	
  dc:	20 75       	subc	@r5,	r0	
  de:	6e 73       	subc.b	#2,	r14	;r3 As==10
  e0:	69 67       	addc.b	@r7,	r9	
  e2:	6e 65       	addc.b	@r5,	r14	
  e4:	64 20       	jnz	$+202    	;abs 0x1ae
  e6:	69 6e       	addc.b	@r14,	r9	
  e8:	74 00       	.word	0x0074;	????	
  ea:	2a 5f       	add	@r15,	r10	
  ec:	5f 50 31 49 	add.b	0x4931,	r15	;PC rel. 0x04a21
  f0:	45 53       	add.b	#0,	r5	;r3 As==00
  f2:	00 70       	subc	r0,	r0	
  f4:	6f 72       	subc.b	#4,	r15	;r2 As==10
  f6:	74 31       	jn	$+746    	;abs 0x3e0
  f8:	5f 69 73 72 	addc.b	29299(r9),r15	;0x7273(r9)
  fc:	00 68       	addc	r8,	r0	
  fe:	61 73       	subc.b	#2,	r1	;r3 As==10
 100:	5f 72 65 63 	subc.b	&0x6365,r15	
 104:	65 69       	addc.b	@r9,	r5	
 106:	76 65       	addc.b	@r5+,	r6	
 108:	64 00       	.word	0x0064;	????	
 10a:	5f 42 6f 6f 	mov.b	&0x6f6f,r15	
 10e:	6c 00       	.word	0x006c;	????	
 110:	74 78       	subc.b	@r8+,	r4	
 112:	5f 62 79 74 	addc.b	&0x7479,r15	
 116:	65 00       	.word	0x0065;	????	
 118:	2a 5f       	add	@r15,	r10	
 11a:	5f 54 41 43 	add.b	17217(r4),r15	;0x4341(r4)
 11e:	43 52       	.word	0x5243;	????	Illegal as 2-op instr
 120:	30 00       	.word	0x0030;	????	
 122:	6d 61       	addc.b	@r1,	r13	
 124:	69 6e       	addc.b	@r14,	r9	
 126:	2e 63       	addc	#2,	r14	;r3 As==10
 128:	00 2a       	jnc	$-1022   	;abs 0xfd2a
 12a:	5f 5f 54 41 	add.b	16724(r15),r15	;0x4154(r15)
 12e:	43 54       	.word	0x5443;	????	Illegal as 2-op instr
 130:	4c 00       	.word	0x004c;	????	
 132:	2a 5f       	add	@r15,	r10	
 134:	5f 50 31 49 	add.b	0x4931,	r15	;PC rel. 0x04a69
 138:	46 47       	mov.b	r7,	r6	
 13a:	00 2a       	jnc	$-1022   	;abs 0xfd3c
 13c:	5f 5f 50 31 	add.b	12624(r15),r15	;0x3150(r15)
 140:	49 45       	mov.b	r5,	r9	
 142:	00 2a       	jnc	$-1022   	;abs 0xfd44
 144:	5f 5f 44 43 	add.b	17220(r15),r15	;0x4344(r15)
 148:	4f 43       	clr.b	r15		
 14a:	54 4c 00 47 	mov.b	18176(r12),r4	;0x4700(r12)
 14e:	4e 55       	add.b	r5,	r14	
 150:	20 43       	br	#2		;r3 As==10
 152:	20 34       	jge	$+66     	;abs 0x194
 154:	2e 35       	jge	$+606    	;abs 0x3b2
 156:	2e 33       	jn	$-418    	;abs 0xffb4
 158:	00 2a       	jnc	$-1022   	;abs 0xfd5a
 15a:	5f 5f 57 44 	add.b	17495(r15),r15	;0x4457(r15)
 15e:	54 43       	mov.b	#1,	r4	;r3 As==01
 160:	54 4c 00 2a 	mov.b	10752(r12),r4	;0x2a00(r12)
 164:	5f 5f 50 31 	add.b	12624(r15),r15	;0x3150(r15)
 168:	49 4e       	mov.b	r14,	r9	
 16a:	00 75       	subc	r5,	r0	
 16c:	61 72       	subc.b	#4,	r1	;r2 As==10
 16e:	74 5f       	add.b	@r15+,	r4	
 170:	70 75       	subc.b	@r5+,	r0	
 172:	74 63       	addc.b	#-1,	r4	;r3 As==11
 174:	00 74       	subc	r4,	r0	
 176:	69 6d       	addc.b	@r13,	r9	
 178:	65 72       	subc.b	#4,	r5	;r2 As==10
 17a:	61 30       	jn	$+196    	;abs 0x23e
 17c:	5f 69 73 72 	addc.b	29299(r9),r15	;0x7273(r9)
 180:	00 75       	subc	r5,	r0	
 182:	61 72       	subc.b	#4,	r1	;r2 As==10
 184:	74 5f       	add.b	@r15+,	r4	
 186:	70 75       	subc.b	@r5+,	r0	
 188:	74 73       	subc.b	#-1,	r4	;r3 As==11
 18a:	00 2a       	jnc	$-1022   	;abs 0xfd8c
 18c:	5f 5f 50 31 	add.b	12624(r15),r15	;0x3150(r15)
 190:	44 49       	mov.b	r9,	r4	
 192:	52 00       	.word	0x0052;	????	
 194:	72 78       	subc.b	@r8+,	r2	
 196:	5f 62 79 74 	addc.b	&0x7479,r15	
 19a:	65 00       	.word	0x0065;	????	

Disassembly of section .debug_loc:

00000000 <.debug_loc>:
   0:	ba f8 d0 f8 	and	@r8+,	-1840(r10);0xf8d0(r10)
   4:	01 00       	.word	0x0001;	????	
   6:	5f d2 f8 d4 	bis.b	&0xd4f8,r15	
   a:	f8 01       	.word	0x01f8;	????	
   c:	00 5f       	add	r15,	r0	
   e:	00 00       	.word	0x0000;	????	
  10:	00 00       	.word	0x0000;	????	
  12:	1a f9 1c f9 	and	-1764(r9),r10	;0xf91c(r9)
  16:	02 00       	.word	0x0002;	????	
  18:	71 02       	.word	0x0271;	????	
  1a:	1c f9 34 f9 	and	-1740(r9),r12	;0xf934(r9)
  1e:	02 00       	.word	0x0002;	????	
  20:	71 04       	.word	0x0471;	????	
  22:	00 00       	.word	0x0000;	????	
  24:	00 00       	.word	0x0000;	????	
  26:	1a f9 20 f9 	and	-1760(r9),r10	;0xf920(r9)
  2a:	01 00       	.word	0x0001;	????	
  2c:	5f 20       	jnz	$+192    	;abs 0xec
  2e:	f9 26       	jz	$-524    	;abs 0xfe22
  30:	f9 01       	.word	0x01f9;	????	
  32:	00 5b       	add	r11,	r0	
  34:	26 f9       	and	@r9,	r6	
  36:	32 f9       	and	@r9+,	r2	
  38:	01 00       	.word	0x0001;	????	
  3a:	5b 00       	.word	0x005b;	????	
  3c:	00 00       	.word	0x0000;	????	
  3e:	00 68       	addc	r8,	r0	
  40:	f9 6a f9 02 	addc.b	@r10+,	761(r9)	;0x02f9(r9)
  44:	00 71       	subc	r1,	r0	
  46:	02 6a       	addc	r10,	r2	
  48:	f9 1c       	.word	0x1cf9;	????	
  4a:	fa 02       	.word	0x02fa;	????	
  4c:	00 71       	subc	r1,	r0	
  4e:	04 00       	.word	0x0004;	????	
  50:	00 00       	.word	0x0000;	????	
  52:	00 38       	jl	$+2      	;abs 0x54
  54:	f8 3a       	jl	$-526    	;abs 0xfe46
  56:	f8 02       	.word	0x02f8;	????	
  58:	00 71       	subc	r1,	r0	
  5a:	02 3a       	jl	$-1018   	;abs 0xfc60
  5c:	f8 98 f8 02 	cmp.b	@r8+,	760(r8)	;0x02f8(r8)
  60:	00 71       	subc	r1,	r0	
  62:	04 00       	.word	0x0004;	????	
  64:	00 00       	.word	0x0000;	????	
	...

Disassembly of section .debug_pubtypes:

00000000 <.debug_pubtypes>:
   0:	1a 00       	.word	0x001a;	????	
   2:	00 00       	.word	0x0000;	????	
   4:	02 00       	.word	0x0002;	????	
   6:	00 00       	.word	0x0000;	????	
   8:	00 00       	.word	0x0000;	????	
   a:	fd 03       	.word	0x03fd;	????	
   c:	00 00       	.word	0x0000;	????	
   e:	41 00       	.word	0x0041;	????	
  10:	00 00       	.word	0x0000;	????	
  12:	75 69       	addc.b	@r9+,	r5	
  14:	6e 74       	subc.b	@r4,	r14	
  16:	38 5f       	add	@r15+,	r8	
  18:	74 00       	.word	0x0074;	????	
  1a:	00 00       	.word	0x0000;	????	
	...

Disassembly of section .debug_ranges:

00000000 <.debug_ranges>:
   0:	a2 f8 2f fa 	and	@r8,	&0xfa2f	
   4:	38 f8       	and	@r8+,	r8	
   6:	98 f8 00 00 	and	0(r8),	0(r8)	;0x0000(r8), 0x0000(r8)
   a:	00 00 
